target datalayout = "e-m:e-p270:32:32-p271:32:32-p272:64:64-i64:64-i128:128-f80:128-n8:16:32:64-S128"
target triple = "x86_64-unknown-linux-gnu"

%struct.RAMList = type { %struct.QemuMutex, ptr, %struct.anon, [3 x ptr], i32, %struct.anon.0 }
%struct.QemuMutex = type { %union.pthread_mutex_t, i8 }
%union.pthread_mutex_t = type { %struct.__pthread_mutex_s }
%struct.__pthread_mutex_s = type { i32, i32, i32, i32, i32, i16, i16, %struct.__pthread_internal_list }
%struct.__pthread_internal_list = type { ptr, ptr }
%struct.anon = type { ptr }
%struct.anon.0 = type { ptr }
%struct.rcu_head = type { ptr, ptr }
%struct.RAMBlock = type { %struct.rcu_head, ptr, ptr, ptr, i64, i64, i64, ptr, i32, [256 x i8], %struct.anon.14, %struct.anon.15, i32, i64, i64, ptr, ptr, ptr, i8, i64 }
%struct.anon.14 = type { ptr, ptr }
%struct.anon.15 = type { ptr }

@ram_list = dso_local global %struct.RAMList zeroinitializer, align 8
@.str.1 = private unnamed_addr constant [25 x i8] c"../qemu/system/physmem.c\00", align 1
@__func__.qemu_mutex_lock_ramlist = private unnamed_addr constant [24 x i8] c"qemu_mutex_lock_ramlist\00", align 1
@qemu_mutex_lock_func = external global ptr, align 8
@__func__.qemu_ram_free = private unnamed_addr constant [14 x i8] c"qemu_ram_free\00", align 1

; Function Attrs: nounwind sspstrong uwtable
define dso_local void @qemu_mutex_unlock_ramlist() #0 {
entry:
  call void @qemu_mutex_unlock_impl(ptr noundef @ram_list, ptr noundef @.str.1, i32 noundef 1118)
  ret void
}

; Function Attrs: nounwind sspstrong uwtable
define dso_local void @qemu_mutex_lock_ramlist() #0 {
entry:
  %_f = alloca ptr, align 8
  %tmp = alloca ptr, align 8
  %atomic-temp = alloca ptr, align 8
  br label %while.cond

while.cond:                                       ; preds = %do.end, %entry
  br i1 false, label %while.body, label %while.end

while.body:                                       ; preds = %while.cond
  br label %do.body

do.body:                                          ; preds = %while.body
  call void @g_assertion_message_expr(ptr noundef null, ptr noundef @.str.1, i32 noundef 1113, ptr noundef @__func__.qemu_mutex_lock_ramlist, ptr noundef null) #14
  unreachable

do.end:                                           ; No predecessors!
  br label %while.cond

while.end:                                        ; preds = %while.cond
  %0 = load atomic i64, ptr @qemu_mutex_lock_func monotonic, align 8
  store i64 %0, ptr %atomic-temp, align 8
  %1 = load ptr, ptr %atomic-temp, align 8
  store ptr %1, ptr %tmp, align 8
  %2 = load ptr, ptr %tmp, align 8
  store ptr %2, ptr %_f, align 8
  %3 = load ptr, ptr %_f, align 8
  call void %3(ptr noundef @ram_list, ptr noundef @.str.1, i32 noundef 1113)
  ret void
}

; Function Attrs: nounwind sspstrong uwtable
define dso_local void @qemu_ram_free(ptr noundef %block) #0 {
entry:
  %block.addr = alloca ptr, align 8
  %.atomictmp = alloca ptr, align 8
  %func_type_invalid = alloca i8, align 1
  %tmp = alloca ptr, align 8
  store ptr %block, ptr %block.addr, align 8
  %0 = load ptr, ptr %block.addr, align 8
  %tobool = icmp ne ptr %0, null
  br i1 %tobool, label %if.end, label %if.then

if.then:                                          ; preds = %entry
  br label %return

if.end:                                           ; preds = %entry
  %1 = load ptr, ptr %block.addr, align 8
  %host = getelementptr inbounds %struct.RAMBlock, ptr %1, i32 0, i32 2
  %2 = load ptr, ptr %host, align 8
  %tobool1 = icmp ne ptr %2, null
  br i1 %tobool1, label %if.then2, label %if.end4

if.then2:                                         ; preds = %if.end
  %3 = load ptr, ptr %block.addr, align 8
  %host3 = getelementptr inbounds %struct.RAMBlock, ptr %3, i32 0, i32 2
  %4 = load ptr, ptr %host3, align 8
  %5 = load ptr, ptr %block.addr, align 8
  %used_length = getelementptr inbounds %struct.RAMBlock, ptr %5, i32 0, i32 5
  %6 = load i64, ptr %used_length, align 8
  %7 = load ptr, ptr %block.addr, align 8
  %max_length = getelementptr inbounds %struct.RAMBlock, ptr %7, i32 0, i32 6
  %8 = load i64, ptr %max_length, align 8
  call void @ram_block_notify_remove(ptr noundef %4, i64 noundef %6, i64 noundef %8)
  br label %if.end4

if.end4:                                          ; preds = %if.then2, %if.end
  call void @qemu_mutex_lock_ramlist()
  br label %do.body

do.body:                                          ; preds = %if.end4
  %9 = load ptr, ptr %block.addr, align 8
  %next = getelementptr inbounds %struct.RAMBlock, ptr %9, i32 0, i32 10
  %le_next = getelementptr inbounds %struct.anon.14, ptr %next, i32 0, i32 0
  %10 = load ptr, ptr %le_next, align 8
  %cmp = icmp ne ptr %10, null
  br i1 %cmp, label %if.then5, label %if.end11

if.then5:                                         ; preds = %do.body
  %11 = load ptr, ptr %block.addr, align 8
  %next6 = getelementptr inbounds %struct.RAMBlock, ptr %11, i32 0, i32 10
  %le_prev = getelementptr inbounds %struct.anon.14, ptr %next6, i32 0, i32 1
  %12 = load ptr, ptr %le_prev, align 8
  %13 = load ptr, ptr %block.addr, align 8
  %next7 = getelementptr inbounds %struct.RAMBlock, ptr %13, i32 0, i32 10
  %le_next8 = getelementptr inbounds %struct.anon.14, ptr %next7, i32 0, i32 0
  %14 = load ptr, ptr %le_next8, align 8
  %next9 = getelementptr inbounds %struct.RAMBlock, ptr %14, i32 0, i32 10
  %le_prev10 = getelementptr inbounds %struct.anon.14, ptr %next9, i32 0, i32 1
  store ptr %12, ptr %le_prev10, align 8
  br label %if.end11

if.end11:                                         ; preds = %if.then5, %do.body
  br label %do.body12

do.body12:                                        ; preds = %if.end11
  br label %while.cond

while.cond:                                       ; preds = %do.end, %do.body12
  br i1 false, label %while.body, label %while.end

while.body:                                       ; preds = %while.cond
  br label %do.body13

do.body13:                                        ; preds = %while.body
  call void @g_assertion_message_expr(ptr noundef null, ptr noundef @.str.1, i32 noundef 2096, ptr noundef @__func__.qemu_ram_free, ptr noundef null) #14
  unreachable

do.end:                                           ; No predecessors!
  br label %while.cond

while.end:                                        ; preds = %while.cond
  %15 = load ptr, ptr %block.addr, align 8
  %next14 = getelementptr inbounds %struct.RAMBlock, ptr %15, i32 0, i32 10
  %le_prev15 = getelementptr inbounds %struct.anon.14, ptr %next14, i32 0, i32 1
  %16 = load ptr, ptr %le_prev15, align 8
  %17 = load ptr, ptr %block.addr, align 8
  %next16 = getelementptr inbounds %struct.RAMBlock, ptr %17, i32 0, i32 10
  %le_next17 = getelementptr inbounds %struct.anon.14, ptr %next16, i32 0, i32 0
  %18 = load ptr, ptr %le_next17, align 8
  store ptr %18, ptr %.atomictmp, align 8
  %19 = load i64, ptr %.atomictmp, align 8
  store atomic i64 %19, ptr %16 monotonic, align 8
  br label %do.end18

do.end18:                                         ; preds = %while.end
  br label %do.end19

do.end19:                                         ; preds = %do.end18
  %20 = getelementptr inbounds %struct.RAMList, ptr @ram_list, i32 0, i32 1
  store ptr null, ptr %20, align 8
  call void asm sideeffect "", "~{memory},~{dirflag},~{fpsr},~{flags}"() #15, !srcloc !42
  fence release
  %21 = getelementptr inbounds %struct.RAMList, ptr @ram_list, i32 0, i32 4
  %22 = load i32, ptr %21, align 8
  %inc = add i32 %22, 1
  %23 = getelementptr inbounds %struct.RAMList, ptr @ram_list, i32 0, i32 4
  store i32 %inc, ptr %23, align 8
  %24 = ptrtoint ptr @reclaim_ramblock to i64
  %25 = ptrtoint ptr @reclaim_ramblock to i64
  %26 = sub i64 %24, %25
  %27 = trunc i64 %26 to i8
  store i8 %27, ptr %func_type_invalid, align 1
  %28 = load ptr, ptr %block.addr, align 8
  %rcu = getelementptr inbounds %struct.RAMBlock, ptr %28, i32 0, i32 0
  store ptr %rcu, ptr %tmp, align 8
  %29 = load ptr, ptr %tmp, align 8
  call void @call_rcu1(ptr noundef %29, ptr noundef @reclaim_ramblock)
  call void @qemu_mutex_unlock_ramlist()
  br label %return

return:                                           ; preds = %do.end19, %if.then
  ret void
}