; Function Attrs: nounwind sspstrong uwtable
define dso_local void @qemu_ram_free(ptr noundef %block) local_unnamed_addr #0 {
entry:
  %tobool.not = icmp eq ptr %block, null
  br i1 %tobool.not, label %return, label %if.end

if.end:                                           ; preds = %entry
  %host = getelementptr inbounds nuw i8, ptr %block, i64 24
  %0 = load ptr, ptr %host, align 8
  %tobool1.not = icmp eq ptr %0, null
  br i1 %tobool1.not, label %if.end4, label %if.then2

if.then2:                                         ; preds = %if.end
  %used_length = getelementptr inbounds nuw i8, ptr %block, i64 48
  %1 = load i64, ptr %used_length, align 8
  %max_length = getelementptr inbounds nuw i8, ptr %block, i64 56
  %2 = load i64, ptr %max_length, align 8
  tail call void @ram_block_notify_remove(ptr noundef nonnull %0, i64 noundef %1, i64 noundef %2) #28
  br label %if.end4

if.end4:                                          ; preds = %if.then2, %if.end
  %3 = load atomic i64, ptr @qemu_mutex_lock_func monotonic, align 8
  %4 = inttoptr i64 %3 to ptr
  tail call void %4(ptr noundef nonnull @ram_list, ptr noundef nonnull @.str.1, i32 noundef 1113) #28
  %next = getelementptr inbounds nuw i8, ptr %block, i64 336
  %5 = load ptr, ptr %next, align 8
  %cmp.not = icmp eq ptr %5, null
  %le_prev15.phi.trans.insert = getelementptr inbounds nuw i8, ptr %block, i64 344
  %.pre = load ptr, ptr %le_prev15.phi.trans.insert, align 8
  br i1 %cmp.not, label %while.end, label %if.then5

if.then5:                                         ; preds = %if.end4
  %le_prev10 = getelementptr inbounds nuw i8, ptr %5, i64 344
  store ptr %.pre, ptr %le_prev10, align 8
  %.pre12 = load ptr, ptr %next, align 8
  %6 = ptrtoint ptr %.pre12 to i64
  br label %while.end

while.end:                                        ; preds = %if.end4, %if.then5
  %7 = phi i64 [ %6, %if.then5 ], [ 0, %if.end4 ]
  store atomic i64 %7, ptr %.pre monotonic, align 8
  store ptr null, ptr getelementptr inbounds nuw (i8, ptr @ram_list, i64 48), align 8
  tail call void asm sideeffect "", "~{memory},~{dirflag},~{fpsr},~{flags}"() #28, !srcloc !59
  fence release
  %8 = load i32, ptr getelementptr inbounds nuw (i8, ptr @ram_list, i64 88), align 8
  %inc = add i32 %8, 1
  store i32 %inc, ptr getelementptr inbounds nuw (i8, ptr @ram_list, i64 88), align 8
  tail call void @call_rcu1(ptr noundef nonnull %block, ptr noundef nonnull @reclaim_ramblock) #28
  tail call void @qemu_mutex_unlock_impl(ptr noundef nonnull @ram_list, ptr noundef nonnull @.str.1, i32 noundef 1118) #28
  br label %return

return:                                           ; preds = %entry, %while.end
  ret void
}